
comp.bin:     file format elf32-or1k


Disassembly of section .text:

00010000 <main>:
   10000:	9c 21 ff f0 	l.addi r1,r1,-16
   10004:	d4 01 10 08 	l.sw 8(r1),r2
   10008:	9c 41 00 10 	l.addi r2,r1,16
   1000c:	d4 01 48 0c 	l.sw 12(r1),r9
   10010:	d7 e2 07 f4 	l.sw -12(r2),r0
   10014:	00 00 00 0d 	l.j 10048 <main+0x48>
   10018:	15 00 00 00 	l.nop 0x0
   1001c:	1a 20 00 01 	l.movhi r17,0x1
   10020:	86 62 ff f4 	l.lwz r19,-12(r2)
   10024:	aa a0 00 02 	l.ori r21,r0,0x2
   10028:	e2 73 a8 08 	l.sll r19,r19,r21
   1002c:	9e 31 23 30 	l.addi r17,r17,9008
   10030:	e2 33 88 00 	l.add r17,r19,r17
   10034:	86 62 ff f4 	l.lwz r19,-12(r2)
   10038:	d4 11 98 00 	l.sw 0(r17),r19
   1003c:	86 22 ff f4 	l.lwz r17,-12(r2)
   10040:	9e 31 00 01 	l.addi r17,r17,1
   10044:	d7 e2 8f f4 	l.sw -12(r2),r17
   10048:	86 62 ff f4 	l.lwz r19,-12(r2)
   1004c:	aa 20 00 13 	l.ori r17,r0,0x13
   10050:	e5 b3 88 00 	l.sfles r19,r17
   10054:	13 ff ff f2 	l.bf 1001c <main+0x1c>
   10058:	15 00 00 00 	l.nop 0x0
   1005c:	aa 20 00 2a 	l.ori r17,r0,0x2a
   10060:	d7 e2 8f f0 	l.sw -16(r2),r17
   10064:	aa 20 00 01 	l.ori r17,r0,0x1
   10068:	d7 e2 8f f4 	l.sw -12(r2),r17
   1006c:	00 00 00 15 	l.j 100c0 <main+0xc0>
   10070:	15 00 00 00 	l.nop 0x0
   10074:	86 22 ff f4 	l.lwz r17,-12(r2)
   10078:	9e 71 ff ff 	l.addi r19,r17,-1
   1007c:	1a 20 00 01 	l.movhi r17,0x1
   10080:	aa e0 00 02 	l.ori r23,r0,0x2
   10084:	e2 73 b8 08 	l.sll r19,r19,r23
   10088:	9e 31 23 30 	l.addi r17,r17,9008
   1008c:	e2 33 88 00 	l.add r17,r19,r17
   10090:	86 71 00 00 	l.lwz r19,0(r17)
   10094:	86 22 ff f0 	l.lwz r17,-16(r2)
   10098:	e2 73 88 00 	l.add r19,r19,r17
   1009c:	1a 20 00 01 	l.movhi r17,0x1
   100a0:	86 a2 ff f4 	l.lwz r21,-12(r2)
   100a4:	e2 b5 b8 08 	l.sll r21,r21,r23
   100a8:	9e 31 22 e0 	l.addi r17,r17,8928
   100ac:	e2 35 88 00 	l.add r17,r21,r17
   100b0:	d4 11 98 00 	l.sw 0(r17),r19
   100b4:	86 22 ff f4 	l.lwz r17,-12(r2)
   100b8:	9e 31 00 01 	l.addi r17,r17,1
   100bc:	d7 e2 8f f4 	l.sw -12(r2),r17
   100c0:	86 62 ff f4 	l.lwz r19,-12(r2)
   100c4:	aa 20 00 13 	l.ori r17,r0,0x13
   100c8:	e5 b3 88 00 	l.sfles r19,r17
   100cc:	13 ff ff ea 	l.bf 10074 <main+0x74>
   100d0:	15 00 00 00 	l.nop 0x0
   100d4:	1a 20 00 01 	l.movhi r17,0x1
   100d8:	9e 31 22 e0 	l.addi r17,r17,8928
   100dc:	9e 31 00 4c 	l.addi r17,r17,76
   100e0:	86 31 00 00 	l.lwz r17,0(r17)
   100e4:	e0 71 88 04 	l.or r3,r17,r17
   100e8:	04 00 00 1d 	l.jal 1015c <print_roman>
   100ec:	15 00 00 00 	l.nop 0x0
   100f0:	1a 20 00 00 	l.movhi r17,0x0
   100f4:	e1 71 88 04 	l.or r11,r17,r17
   100f8:	84 41 00 08 	l.lwz r2,8(r1)
   100fc:	85 21 00 0c 	l.lwz r9,12(r1)
   10100:	9c 21 00 10 	l.addi r1,r1,16
   10104:	44 00 48 00 	l.jr r9
   10108:	15 00 00 00 	l.nop 0x0

0001010c <putchar>:
   1010c:	9c 21 ff f0 	l.addi r1,r1,-16
   10110:	d4 01 10 08 	l.sw 8(r1),r2
   10114:	9c 41 00 10 	l.addi r2,r1,16
   10118:	d4 01 48 0c 	l.sw 12(r1),r9
   1011c:	d7 e2 1f f0 	l.sw -16(r2),r3
   10120:	aa 20 02 00 	l.ori r17,r0,0x200
   10124:	d7 e2 8f f4 	l.sw -12(r2),r17
   10128:	86 22 ff f0 	l.lwz r17,-16(r2)
   1012c:	aa 60 00 18 	l.ori r19,r0,0x18
   10130:	e2 31 98 08 	l.sll r17,r17,r19
   10134:	e2 31 98 88 	l.sra r17,r17,r19
   10138:	86 62 ff f4 	l.lwz r19,-12(r2)
   1013c:	d8 13 88 00 	l.sb 0(r19),r17
   10140:	1a 20 00 00 	l.movhi r17,0x0
   10144:	e1 71 88 04 	l.or r11,r17,r17
   10148:	84 41 00 08 	l.lwz r2,8(r1)
   1014c:	85 21 00 0c 	l.lwz r9,12(r1)
   10150:	9c 21 00 10 	l.addi r1,r1,16
   10154:	44 00 48 00 	l.jr r9
   10158:	15 00 00 00 	l.nop 0x0

0001015c <print_roman>:
   1015c:	9c 21 ff ec 	l.addi r1,r1,-20
   10160:	d4 01 80 08 	l.sw 8(r1),r16
   10164:	d4 01 10 0c 	l.sw 12(r1),r2
   10168:	9c 41 00 14 	l.addi r2,r1,20
   1016c:	d4 01 48 10 	l.sw 16(r1),r9
   10170:	d7 e2 1f ec 	l.sw -20(r2),r3
   10174:	d7 e2 07 f0 	l.sw -16(r2),r0
   10178:	00 00 00 27 	l.j 10214 <print_roman+0xb8>
   1017c:	15 00 00 00 	l.nop 0x0
   10180:	1a 20 00 01 	l.movhi r17,0x1
   10184:	86 62 ff f0 	l.lwz r19,-16(r2)
   10188:	aa 00 00 03 	l.ori r16,r0,0x3
   1018c:	e2 73 80 08 	l.sll r19,r19,r16
   10190:	9e 31 22 a0 	l.addi r17,r17,8864
   10194:	e2 33 88 00 	l.add r17,r19,r17
   10198:	9e 31 00 04 	l.addi r17,r17,4
   1019c:	8e 31 00 00 	l.lbz r17,0(r17)
   101a0:	aa 60 00 18 	l.ori r19,r0,0x18
   101a4:	e2 31 98 08 	l.sll r17,r17,r19
   101a8:	e2 31 98 88 	l.sra r17,r17,r19
   101ac:	e0 71 88 04 	l.or r3,r17,r17
   101b0:	07 ff ff d7 	l.jal 1010c <putchar>
   101b4:	15 00 00 00 	l.nop 0x0
   101b8:	1a 20 00 01 	l.movhi r17,0x1
   101bc:	86 62 ff f0 	l.lwz r19,-16(r2)
   101c0:	e2 73 80 08 	l.sll r19,r19,r16
   101c4:	9e 31 22 a0 	l.addi r17,r17,8864
   101c8:	e2 33 88 00 	l.add r17,r19,r17
   101cc:	86 31 00 00 	l.lwz r17,0(r17)
   101d0:	86 62 ff ec 	l.lwz r19,-20(r2)
   101d4:	e2 33 88 02 	l.sub r17,r19,r17
   101d8:	d7 e2 8f ec 	l.sw -20(r2),r17
   101dc:	1a 20 00 01 	l.movhi r17,0x1
   101e0:	86 62 ff f0 	l.lwz r19,-16(r2)
   101e4:	aa a0 00 03 	l.ori r21,r0,0x3
   101e8:	e2 73 a8 08 	l.sll r19,r19,r21
   101ec:	9e 31 22 a0 	l.addi r17,r17,8864
   101f0:	e2 33 88 00 	l.add r17,r19,r17
   101f4:	86 31 00 00 	l.lwz r17,0(r17)
   101f8:	86 62 ff ec 	l.lwz r19,-20(r2)
   101fc:	e5 73 88 00 	l.sfges r19,r17
   10200:	13 ff ff e0 	l.bf 10180 <print_roman+0x24>
   10204:	15 00 00 00 	l.nop 0x0
   10208:	86 22 ff f0 	l.lwz r17,-16(r2)
   1020c:	9e 31 00 01 	l.addi r17,r17,1
   10210:	d7 e2 8f f0 	l.sw -16(r2),r17
   10214:	1a 20 00 01 	l.movhi r17,0x1
   10218:	86 62 ff f0 	l.lwz r19,-16(r2)
   1021c:	aa a0 00 03 	l.ori r21,r0,0x3
   10220:	e2 73 a8 08 	l.sll r19,r19,r21
   10224:	9e 31 22 a0 	l.addi r17,r17,8864
   10228:	e2 33 88 00 	l.add r17,r19,r17
   1022c:	86 31 00 00 	l.lwz r17,0(r17)
   10230:	1a 60 00 00 	l.movhi r19,0x0
   10234:	e4 31 98 00 	l.sfne r17,r19
   10238:	13 ff ff e9 	l.bf 101dc <print_roman+0x80>
   1023c:	15 00 00 00 	l.nop 0x0
   10240:	a8 60 00 0a 	l.ori r3,r0,0xa
   10244:	07 ff ff b2 	l.jal 1010c <putchar>
   10248:	15 00 00 00 	l.nop 0x0
   1024c:	15 00 00 00 	l.nop 0x0
   10250:	86 01 00 08 	l.lwz r16,8(r1)
   10254:	84 41 00 0c 	l.lwz r2,12(r1)
   10258:	85 21 00 10 	l.lwz r9,16(r1)
   1025c:	9c 21 00 14 	l.addi r1,r1,20
   10260:	44 00 48 00 	l.jr r9
   10264:	15 00 00 00 	l.nop 0x0

00010268 <_start>:
   10268:	18 20 00 01 	l.movhi r1,0x1
   1026c:	a8 21 33 60 	l.ori r1,r1,0x3360
   10270:	9c 41 00 00 	l.addi r2,r1,0
   10274:	07 ff ff 63 	l.jal 10000 <main>
   10278:	15 00 00 00 	l.nop 0x0
   1027c:	9c 60 02 78 	l.addi r3,r0,632
   10280:	d4 03 58 00 	l.sw 0(r3),r11
   10284:	15 00 00 00 	l.nop 0x0
   10288:	15 00 00 00 	l.nop 0x0
   1028c:	15 00 00 00 	l.nop 0x0
   10290:	15 00 00 00 	l.nop 0x0
   10294:	15 00 00 00 	l.nop 0x0
   10298:	15 00 00 00 	l.nop 0x0
   1029c:	15 00 00 00 	l.nop 0x0
